target datalayout = "e-m:e-p270:32:32-p271:32:32-p272:64:64-i64:64-i128:128-f80:128-n8:16:32:64-S128"
target triple = "x86_64-unknown-linux-gnu"

%struct.MigrationIncomingState = type { ptr, [2 x ptr], ptr, ptr, %struct.QemuSemaphore, %struct.QemuEvent, %struct.AnnounceTimer, i64, i8, %struct.QemuThread, i8, i8, %struct.QemuThread, i32, i32, ptr, %struct.QemuMutex, ptr, i32, ptr, %struct.QemuSemaphore, %struct.QemuThread, i32, %struct.QemuMutex, ptr, ptr, ptr, ptr, i32, ptr, ptr, %struct.QemuSemaphore, ptr, %struct.QemuSemaphore, %struct.QemuSemaphore, %struct.QemuSemaphore, ptr, ptr, i32, %struct.QemuMutex, %struct.QemuCond, i32 }
%struct.QemuEvent = type { i32, i8 }
%struct.AnnounceTimer = type { ptr, %struct.AnnounceParameters, i32, i32 }
%struct.AnnounceParameters = type { i64, i64, i64, i64, i8, ptr, ptr }
%struct.QemuThread = type { i64 }
%struct.QemuSemaphore = type { %struct.QemuMutex, %struct.QemuCond, i32 }
%struct.QemuMutex = type { %union.pthread_mutex_t, i8 }
%union.pthread_mutex_t = type { %struct.__pthread_mutex_s }
%struct.__pthread_mutex_s = type { i32, i32, i32, i32, i32, i16, i16, %struct.__pthread_internal_list }
%struct.__pthread_internal_list = type { ptr, ptr }
%struct.QemuCond = type { %union.pthread_cond_t, i8 }
%union.pthread_cond_t = type { %struct.__pthread_cond_s }
%struct.__pthread_cond_s = type { %union.__atomic_wide_counter, %union.__atomic_wide_counter, [2 x i32], [2 x i32], i32, i32, [2 x i32] }
%union.__atomic_wide_counter = type { i64 }

@.str.2 = private unnamed_addr constant [30 x i8] c"../qemu/migration/migration.c\00", align 1
@current_incoming = internal global ptr null, align 8
@.str.6 = private unnamed_addr constant [17 x i8] c"current_incoming\00", align 1
@__PRETTY_FUNCTION__.migration_incoming_get_current = private unnamed_addr constant [61 x i8] c"MigrationIncomingState *migration_incoming_get_current(void)\00", align 1

; Function Attrs: nounwind sspstrong uwtable
define dso_local ptr @migration_incoming_get_current() #0 {
entry:
  %0 = load ptr, ptr @current_incoming, align 8
  %tobool = icmp ne ptr %0, null
  br i1 %tobool, label %if.then, label %if.else

if.then:                                          ; preds = %entry
  br label %if.end

if.else:                                          ; preds = %entry
  call void @__assert_fail(ptr noundef @.str.6, ptr noundef @.str.2, i32 noundef 252, ptr noundef @__PRETTY_FUNCTION__.migration_incoming_get_current) #13
  unreachable

if.end:                                           ; preds = %if.then
  %1 = load ptr, ptr @current_incoming, align 8
  ret ptr %1
}

; Function Attrs: nounwind sspstrong uwtable
define dso_local zeroext i1 @migration_has_all_channels() #0 {
entry:
  %retval = alloca i1, align 1
  %mis = alloca ptr, align 8
  %call = call ptr @migration_incoming_get_current()
  store ptr %call, ptr %mis, align 8
  %0 = load ptr, ptr %mis, align 8
  %from_src_file = getelementptr inbounds %struct.MigrationIncomingState, ptr %0, i32 0, i32 0
  %1 = load ptr, ptr %from_src_file, align 8
  %tobool = icmp ne ptr %1, null
  br i1 %tobool, label %if.end, label %if.then

if.then:                                          ; preds = %entry
  store i1 false, ptr %retval, align 1
  br label %return

if.end:                                           ; preds = %entry
  %call1 = call zeroext i1 @migrate_multifd()
  br i1 %call1, label %if.then2, label %if.end4

if.then2:                                         ; preds = %if.end
  %call3 = call zeroext i1 @multifd_recv_all_channels_created()
  store i1 %call3, ptr %retval, align 1
  br label %return

if.end4:                                          ; preds = %if.end
  %call5 = call zeroext i1 @migrate_postcopy_preempt()
  br i1 %call5, label %if.then6, label %if.end7

if.then6:                                         ; preds = %if.end4
  %2 = load ptr, ptr %mis, align 8
  %postcopy_qemufile_dst = getelementptr inbounds %struct.MigrationIncomingState, ptr %2, i32 0, i32 19
  %3 = load ptr, ptr %postcopy_qemufile_dst, align 8
  %cmp = icmp ne ptr %3, null
  store i1 %cmp, ptr %retval, align 1
  br label %return

if.end7:                                          ; preds = %if.end4
  store i1 true, ptr %retval, align 1
  br label %return

return:                                           ; preds = %if.end7, %if.then6, %if.then2, %if.then
  %4 = load i1, ptr %retval, align 1
  ret i1 %4
}