; Function Attrs: nounwind sspstrong uwtable
define dso_local zeroext i1 @migration_has_all_channels() local_unnamed_addr #0 {
entry:
  %0 = load ptr, ptr @current_incoming, align 8
  %tobool.not.i = icmp eq ptr %0, null
  br i1 %tobool.not.i, label %if.else.i, label %migration_incoming_get_current.exit

if.else.i:                                        ; preds = %entry
  tail call void @__assert_fail(ptr noundef nonnull @.str.6, ptr noundef nonnull @.str.2, i32 noundef 252, ptr noundef nonnull @__PRETTY_FUNCTION__.migration_incoming_get_current) #20
  unreachable

migration_incoming_get_current.exit:              ; preds = %entry
  %1 = load ptr, ptr %0, align 8
  %tobool.not = icmp eq ptr %1, null
  br i1 %tobool.not, label %return, label %if.end

if.end:                                           ; preds = %migration_incoming_get_current.exit
  %call1 = tail call zeroext i1 @migrate_multifd() #19
  br i1 %call1, label %if.then2, label %if.end4

if.then2:                                         ; preds = %if.end
  %call3 = tail call zeroext i1 @multifd_recv_all_channels_created() #19
  br label %return

if.end4:                                          ; preds = %if.end
  %call5 = tail call zeroext i1 @migrate_postcopy_preempt() #19
  br i1 %call5, label %if.then6, label %return

if.then6:                                         ; preds = %if.end4
  %postcopy_qemufile_dst = getelementptr inbounds nuw i8, ptr %0, i64 352
  %2 = load ptr, ptr %postcopy_qemufile_dst, align 8
  %cmp = icmp ne ptr %2, null
  br label %return

return:                                           ; preds = %if.end4, %migration_incoming_get_current.exit, %if.then6, %if.then2
  %retval.0 = phi i1 [ %call3, %if.then2 ], [ %cmp, %if.then6 ], [ false, %migration_incoming_get_current.exit ], [ true, %if.end4 ]
  ret i1 %retval.0
}